target datalayout = "e-m:e-p270:32:32-p271:32:32-p272:64:64-i64:64-i128:128-f80:128-n8:16:32:64-S128"
target triple = "x86_64-pc-linux-gnu"

%struct.lxb_html_tree = type { ptr, ptr, ptr, ptr, ptr, ptr, ptr, %struct.lxb_html_tree_pending_table_t, ptr, i8, i8, i8, i8, i8, i8, ptr, ptr, ptr, i32, i64 }
%struct.lxb_html_tree_pending_table_t = type { ptr, i8 }
%struct.lxb_html_token_t = type { ptr, ptr, i64, i64, ptr, ptr, ptr, ptr, ptr, i64, i64, i32 }

; Function Attrs: nounwind uwtable
define hidden zeroext i1 @lxb_html_tree_insertion_mode_in_body_skip_new_line(ptr noundef %0, ptr noundef %1) #0 {
  %3 = alloca i1, align 1
  %4 = alloca ptr, align 8
  %5 = alloca ptr, align 8
  store ptr %0, ptr %4, align 8, !tbaa !4
  store ptr %1, ptr %5, align 8, !tbaa !9
  %6 = load ptr, ptr %4, align 8, !tbaa !4
  %7 = getelementptr inbounds nuw %struct.lxb_html_tree, ptr %6, i32 0, i32 16
  %8 = load ptr, ptr %7, align 8, !tbaa !10
  %9 = load ptr, ptr %4, align 8, !tbaa !4
  %10 = getelementptr inbounds nuw %struct.lxb_html_tree, ptr %9, i32 0, i32 15
  store ptr %8, ptr %10, align 8, !tbaa !20
  %11 = load ptr, ptr %5, align 8, !tbaa !9
  %12 = getelementptr inbounds nuw %struct.lxb_html_token_t, ptr %11, i32 0, i32 10
  %13 = load i64, ptr %12, align 8, !tbaa !21
  %14 = icmp ne i64 %13, 2
  br i1 %14, label %15, label %16

15:                                               ; preds = %2
  store i1 false, ptr %3, align 1
  br label %38

16:                                               ; preds = %2
  %17 = load ptr, ptr %5, align 8, !tbaa !9
  %18 = call i32 @lxb_html_token_data_skip_one_newline_begin(ptr noundef %17)
  %19 = load ptr, ptr %4, align 8, !tbaa !4
  %20 = getelementptr inbounds nuw %struct.lxb_html_tree, ptr %19, i32 0, i32 18
  store i32 %18, ptr %20, align 8, !tbaa !25
  %21 = load ptr, ptr %4, align 8, !tbaa !4
  %22 = getelementptr inbounds nuw %struct.lxb_html_tree, ptr %21, i32 0, i32 18
  %23 = load i32, ptr %22, align 8, !tbaa !25
  %24 = icmp ne i32 %23, 0
  br i1 %24, label %25, label %28

25:                                               ; preds = %16
  %26 = load ptr, ptr %4, align 8, !tbaa !4
  %27 = call zeroext i1 @lxb_html_tree_process_abort(ptr noundef %26)
  store i1 %27, ptr %3, align 1
  br label %38

28:                                               ; preds = %16
  %29 = load ptr, ptr %5, align 8, !tbaa !9
  %30 = getelementptr inbounds nuw %struct.lxb_html_token_t, ptr %29, i32 0, i32 4
  %31 = load ptr, ptr %30, align 8, !tbaa !26
  %32 = load ptr, ptr %5, align 8, !tbaa !9
  %33 = getelementptr inbounds nuw %struct.lxb_html_token_t, ptr %32, i32 0, i32 5
  %34 = load ptr, ptr %33, align 8, !tbaa !27
  %35 = icmp eq ptr %31, %34
  br i1 %35, label %36, label %37

36:                                               ; preds = %28
  store i1 true, ptr %3, align 1
  br label %38

37:                                               ; preds = %28
  store i1 false, ptr %3, align 1
  br label %38

38:                                               ; preds = %37, %36, %25, %15
  %39 = load i1, ptr %3, align 1
  ret i1 %39
}