; Function Attrs: nounwind uwtable
define hidden zeroext i1 @lxb_html_tree_insertion_mode_in_body_skip_new_line(ptr noundef initializes((88, 96)) %0, ptr noundef %1) #0 {
  %3 = getelementptr inbounds nuw i8, ptr %0, i64 96
  %4 = load ptr, ptr %3, align 8, !tbaa !4
  %5 = getelementptr inbounds nuw i8, ptr %0, i64 88
  store ptr %4, ptr %5, align 8, !tbaa !17
  %6 = getelementptr inbounds nuw i8, ptr %1, i64 80
  %7 = load i64, ptr %6, align 8, !tbaa !18
  %.not = icmp eq i64 %7, 2
  br i1 %.not, label %8, label %19

8:                                                ; preds = %2
  %9 = tail call i32 @lxb_html_token_data_skip_one_newline_begin(ptr noundef nonnull %1) #6
  %10 = getelementptr inbounds nuw i8, ptr %0, i64 112
  store i32 %9, ptr %10, align 8, !tbaa !22
  %.not10 = icmp eq i32 %9, 0
  br i1 %.not10, label %13, label %11

11:                                               ; preds = %8
  %12 = tail call zeroext i1 @lxb_html_tree_process_abort(ptr noundef nonnull %0) #6
  br label %19

13:                                               ; preds = %8
  %14 = getelementptr inbounds nuw i8, ptr %1, i64 32
  %15 = load ptr, ptr %14, align 8, !tbaa !23
  %16 = getelementptr inbounds nuw i8, ptr %1, i64 40
  %17 = load ptr, ptr %16, align 8, !tbaa !24
  %18 = icmp eq ptr %15, %17
  br label %19

19:                                               ; preds = %13, %2, %11
  %.0 = phi i1 [ %12, %11 ], [ false, %2 ], [ %18, %13 ]
  ret i1 %.0
}